target datalayout = "e-m:e-p270:32:32-p271:32:32-p272:64:64-i64:64-i128:128-f80:128-n8:16:32:64-S128"
target triple = "x86_64-pc-linux-gnu"

%"struct.duckdb::timestamp_ns_t" = type { %"struct.duckdb::timestamp_t" }
%"struct.duckdb::timestamp_t" = type { i64 }

; Function Attrs: mustprogress nounwind uwtable
define linkonce_odr noundef i64 @_ZNSt14numeric_limitsIlE3maxEv() #2 comdat align 2 {
  ret i64 9223372036854775807
}

; Function Attrs: inlinehint mustprogress nounwind uwtable
define linkonce_odr void @_ZN6duckdb11timestamp_tC2El(ptr noundef nonnull align 8 dereferenceable(8) %0, i64 noundef %1) unnamed_addr #5 comdat align 2 {
  %3 = alloca ptr, align 8
  %4 = alloca i64, align 8
  store ptr %0, ptr %3, align 8, !tbaa !12
  store i64 %1, ptr %4, align 8, !tbaa !11
  %5 = load ptr, ptr %3, align 8
  %6 = getelementptr inbounds nuw %"struct.duckdb::timestamp_t", ptr %5, i32 0, i32 0
  %7 = load i64, ptr %4, align 8, !tbaa !11
  store i64 %7, ptr %6, align 8, !tbaa !8
  ret void
}

; Function Attrs: mustprogress nounwind uwtable
define linkonce_odr noundef i64 @_ZN6duckdb13NumericLimitsIlE7MaximumEv() #2 comdat align 2 {
  %1 = call noundef i64 @_ZNSt14numeric_limitsIlE3maxEv() #7
  ret i64 %1
}

; Function Attrs: mustprogress uwtable
define linkonce_odr i64 @_ZN6duckdb11timestamp_t9ninfinityEv() #0 comdat align 2 {
  %1 = alloca %"struct.duckdb::timestamp_t", align 8
  %2 = call noundef i64 @_ZN6duckdb13NumericLimitsIlE7MaximumEv()
  %3 = sub nsw i64 0, %2
  call void @_ZN6duckdb11timestamp_tC2El(ptr noundef nonnull align 8 dereferenceable(8) %1, i64 noundef %3)
  %4 = getelementptr inbounds nuw %"struct.duckdb::timestamp_t", ptr %1, i32 0, i32 0
  %5 = load i64, ptr %4, align 8
  ret i64 %5
}

; Function Attrs: inlinehint mustprogress nounwind uwtable
define linkonce_odr noundef zeroext i1 @_ZNK6duckdb11timestamp_tneERKS0_(ptr noundef nonnull align 8 dereferenceable(8) %0, ptr noundef nonnull align 8 dereferenceable(8) %1) #5 comdat align 2 {
  %3 = alloca ptr, align 8
  %4 = alloca ptr, align 8
  store ptr %0, ptr %3, align 8, !tbaa !12
  store ptr %1, ptr %4, align 8, !tbaa !12
  %5 = load ptr, ptr %3, align 8
  %6 = getelementptr inbounds nuw %"struct.duckdb::timestamp_t", ptr %5, i32 0, i32 0
  %7 = load i64, ptr %6, align 8, !tbaa !8
  %8 = load ptr, ptr %4, align 8, !tbaa !12
  %9 = getelementptr inbounds nuw %"struct.duckdb::timestamp_t", ptr %8, i32 0, i32 0
  %10 = load i64, ptr %9, align 8, !tbaa !8
  %11 = icmp ne i64 %7, %10
  ret i1 %11
}

; Function Attrs: mustprogress uwtable
define linkonce_odr i64 @_ZN6duckdb11timestamp_t8infinityEv() #0 comdat align 2 {
  %1 = alloca %"struct.duckdb::timestamp_t", align 8
  %2 = call noundef i64 @_ZN6duckdb13NumericLimitsIlE7MaximumEv()
  call void @_ZN6duckdb11timestamp_tC2El(ptr noundef nonnull align 8 dereferenceable(8) %1, i64 noundef %2)
  %3 = getelementptr inbounds nuw %"struct.duckdb::timestamp_t", ptr %1, i32 0, i32 0
  %4 = load i64, ptr %3, align 8
  ret i64 %4
}

; Function Attrs: inlinehint mustprogress uwtable
define linkonce_odr noundef zeroext i1 @_ZN6duckdb9Timestamp8IsFiniteENS_11timestamp_tE(i64 %0) #6 comdat align 2 {
  %2 = alloca %"struct.duckdb::timestamp_t", align 8
  %3 = alloca %"struct.duckdb::timestamp_t", align 8
  %4 = alloca %"struct.duckdb::timestamp_t", align 8
  %5 = getelementptr inbounds nuw %"struct.duckdb::timestamp_t", ptr %2, i32 0, i32 0
  store i64 %0, ptr %5, align 8
  call void @llvm.lifetime.start.p0(i64 8, ptr %3) #7
  %6 = call i64 @_ZN6duckdb11timestamp_t8infinityEv()
  %7 = getelementptr inbounds nuw %"struct.duckdb::timestamp_t", ptr %3, i32 0, i32 0
  store i64 %6, ptr %7, align 8
  %8 = call noundef zeroext i1 @_ZNK6duckdb11timestamp_tneERKS0_(ptr noundef nonnull align 8 dereferenceable(8) %2, ptr noundef nonnull align 8 dereferenceable(8) %3)
  call void @llvm.lifetime.start.p0(i64 8, ptr %4) #7
  br i1 %8, label %9, label %13

9:                                                ; preds = %1
  %10 = call i64 @_ZN6duckdb11timestamp_t9ninfinityEv()
  %11 = getelementptr inbounds nuw %"struct.duckdb::timestamp_t", ptr %4, i32 0, i32 0
  store i64 %10, ptr %11, align 8
  %12 = call noundef zeroext i1 @_ZNK6duckdb11timestamp_tneERKS0_(ptr noundef nonnull align 8 dereferenceable(8) %2, ptr noundef nonnull align 8 dereferenceable(8) %4)
  br label %13

13:                                               ; preds = %9, %1
  %14 = phi i1 [ false, %1 ], [ %12, %9 ]
  call void @llvm.lifetime.end.p0(i64 8, ptr %4) #7
  call void @llvm.lifetime.end.p0(i64 8, ptr %3) #7
  ret i1 %14
}

; Function Attrs: mustprogress uwtable
define i64 @_ZN6duckdb31ParquetTimestampMsToTimestampNsERKl(ptr noundef nonnull align 8 dereferenceable(8) %0) #0 {
  %2 = alloca %"struct.duckdb::timestamp_ns_t", align 8
  %3 = alloca ptr, align 8
  %4 = alloca %"struct.duckdb::timestamp_ns_t", align 8
  %5 = alloca %"struct.duckdb::timestamp_t", align 8
  %6 = alloca i32, align 4
  store ptr %0, ptr %3, align 8, !tbaa !17
  call void @llvm.lifetime.start.p0(i64 8, ptr %4) #7
  %7 = load ptr, ptr %3, align 8, !tbaa !17
  %8 = load i64, ptr %7, align 8, !tbaa !11
  %9 = getelementptr inbounds nuw %"struct.duckdb::timestamp_t", ptr %4, i32 0, i32 0
  store i64 %8, ptr %9, align 8, !tbaa !8
  call void @llvm.memcpy.p0.p0.i64(ptr align 8 %5, ptr align 8 %4, i64 8, i1 false), !tbaa.struct !14
  %10 = getelementptr inbounds nuw %"struct.duckdb::timestamp_t", ptr %5, i32 0, i32 0
  %11 = load i64, ptr %10, align 8
  %12 = call noundef zeroext i1 @_ZN6duckdb9Timestamp8IsFiniteENS_11timestamp_tE(i64 %11)
  br i1 %12, label %14, label %13

13:                                               ; preds = %1
  call void @llvm.memcpy.p0.p0.i64(ptr align 8 %2, ptr align 8 %4, i64 8, i1 false)
  store i32 1, ptr %6, align 4
  br label %20

14:                                               ; preds = %1
  %15 = load ptr, ptr %3, align 8, !tbaa !17
  %16 = load i64, ptr %15, align 8, !tbaa !11
  %17 = call i64 @_ZN6duckdb9Timestamp26TimestampNsFromEpochMillisEl(i64 noundef %16)
  %18 = getelementptr inbounds nuw %"struct.duckdb::timestamp_ns_t", ptr %2, i32 0, i32 0
  %19 = getelementptr inbounds nuw %"struct.duckdb::timestamp_t", ptr %18, i32 0, i32 0
  store i64 %17, ptr %19, align 8
  store i32 1, ptr %6, align 4
  br label %20

20:                                               ; preds = %14, %13
  call void @llvm.lifetime.end.p0(i64 8, ptr %4) #7
  %21 = getelementptr inbounds nuw %"struct.duckdb::timestamp_ns_t", ptr %2, i32 0, i32 0
  %22 = getelementptr inbounds nuw %"struct.duckdb::timestamp_t", ptr %21, i32 0, i32 0
  %23 = load i64, ptr %22, align 8
  ret i64 %23
}